; Function Attrs: mustprogress uwtable
define void @_ZNK14ProtoTreeModel18indexFromProtoNodeEP9ProtoNode(ptr dead_on_unwind noalias nocapture writable writeonly sret(%class.QModelIndex) align 8 %0, ptr noundef nonnull align 8 dereferenceable(24) %1, ptr noundef %2) local_unnamed_addr #0 align 2 {
  %.not8 = icmp eq ptr %2, null
  br i1 %.not8, label %4, label %7

4:                                                ; preds = %3
  store i32 -1, ptr %0, align 8
  %5 = getelementptr inbounds i8, ptr %0, i64 4
  store i32 -1, ptr %5, align 4
  %6 = getelementptr inbounds i8, ptr %0, i64 8
  tail call void @llvm.memset.p0.i64(ptr noundef nonnull align 8 dereferenceable(16) %6, i8 0, i64 16, i1 false)
  br label %17

7:                                                ; preds = %3
  %8 = tail call noundef i32 @_ZN9ProtoNode3rowEv(ptr noundef nonnull align 8 dereferenceable(40) %2)
  %9 = tail call noundef zeroext i1 @_ZNK9ProtoNode7isValidEv(ptr noundef nonnull align 8 dereferenceable(40) %2)
  %10 = icmp sgt i32 %8, -1
  %or.cond.not = and i1 %10, %9
  %11 = getelementptr inbounds i8, ptr %0, i64 4
  %12 = getelementptr inbounds i8, ptr %0, i64 8
  br i1 %or.cond.not, label %14, label %13

13:                                               ; preds = %7
  store i32 -1, ptr %0, align 8
  store i32 -1, ptr %11, align 4
  tail call void @llvm.memset.p0.i64(ptr noundef nonnull align 8 dereferenceable(16) %12, i8 0, i64 16, i1 false)
  br label %17

14:                                               ; preds = %7
  store i32 %8, ptr %0, align 8, !alias.scope !13
  store i32 0, ptr %11, align 4, !alias.scope !13
  %15 = ptrtoint ptr %2 to i64
  store i64 %15, ptr %12, align 8, !alias.scope !13
  %16 = getelementptr inbounds i8, ptr %0, i64 16
  store ptr %1, ptr %16, align 8, !alias.scope !13
  br label %17

17:                                               ; preds = %14, %13, %4
  ret void
}